target datalayout = "e-m:e-p270:32:32-p271:32:32-p272:64:64-i64:64-i128:128-f80:128-n8:16:32:64-S128"
target triple = "x86_64-pc-linux-gnu"

%struct.lv_area_t = type { i32, i32, i32, i32 }
%struct._lv_image_decoder_dsc_t = type { ptr, %struct._lv_image_decoder_args_t, ptr, i32, %struct.lv_fs_file_t, %struct.lv_image_header_t, ptr, ptr, i32, i32, ptr, ptr, ptr, ptr }
%struct._lv_image_decoder_args_t = type { i8, i8, i8, i8, i8 }
%struct.lv_fs_file_t = type { ptr, ptr, ptr }
%struct.lv_image_header_t = type <{ i64, i32 }>
%struct._lv_vector_draw_dsc_t = type { %struct._lv_vector_fill_dsc_t, %struct._lv_vector_stroke_dsc_t, %struct._lv_matrix_t, i32, %struct.lv_area_t }
%struct._lv_vector_fill_dsc_t = type { i32, %struct.lv_color32_t, i8, i32, %struct._lv_draw_image_dsc_t, %struct._lv_vector_gradient_t, %struct._lv_matrix_t }
%struct.lv_color32_t = type { i8, i8, i8, i8 }
%struct._lv_draw_image_dsc_t = type { %struct.lv_draw_dsc_base_t, ptr, %struct.lv_image_header_t, i32, i32, i32, i32, i32, %struct.lv_point_t, %struct.lv_color_t, i8, i8, i8, ptr, %struct.lv_area_t, i32, ptr }
%struct.lv_draw_dsc_base_t = type { ptr, i32, i32, i32, ptr, i64, ptr }
%struct.lv_point_t = type { i32, i32 }
%struct.lv_color_t = type { i8, i8, i8 }
%struct._lv_vector_gradient_t = type { i32, [2 x %struct.lv_grad_stop_t], i16, float, float, float, float, float, float, float, i32 }
%struct.lv_grad_stop_t = type { %struct.lv_color_t, i8, i8 }
%struct._lv_vector_stroke_dsc_t = type { i32, %struct.lv_color32_t, i8, float, %struct._lv_array_t, i32, i32, i16, %struct._lv_vector_gradient_t, %struct._lv_matrix_t }
%struct._lv_array_t = type { ptr, i32, i32, i32, i8 }
%struct._lv_matrix_t = type { [3 x [3 x float]] }
%struct._lv_draw_buf_t = type { %struct.lv_image_header_t, i32, ptr, ptr, ptr }
%struct._lv_vector_dsc_t = type { ptr, %struct._lv_vector_draw_dsc_t, %struct._lv_draw_vector_task_dsc_t }
%struct._lv_draw_vector_task_dsc_t = type { %struct.lv_draw_dsc_base_t, ptr }

; Function Attrs: nounwind uwtable
define internal void @svg_draw(ptr noundef %0, ptr noundef %1, ptr noundef %2, ptr noundef %3, ptr noundef %4) #0 {
  %6 = alloca ptr, align 8
  %7 = alloca ptr, align 8
  %8 = alloca ptr, align 8
  %9 = alloca ptr, align 8
  %10 = alloca ptr, align 8
  %11 = alloca ptr, align 8
  %12 = alloca ptr, align 8
  %13 = alloca ptr, align 8
  %14 = alloca %struct._lv_matrix_t, align 4
  %15 = alloca i32, align 4
  %16 = alloca i32, align 4
  store ptr %0, ptr %6, align 8, !tbaa !79
  store ptr %1, ptr %7, align 8, !tbaa !11
  store ptr %2, ptr %8, align 8, !tbaa !13
  store ptr %3, ptr %9, align 8, !tbaa !80
  store ptr %4, ptr %10, align 8, !tbaa !13
  call void @llvm.lifetime.start.p0(i64 8, ptr %11) #4
  %17 = load ptr, ptr %7, align 8, !tbaa !11
  %18 = getelementptr inbounds nuw %struct._lv_image_decoder_dsc_t, ptr %17, i32 0, i32 6
  %19 = load ptr, ptr %18, align 8, !tbaa !66
  store ptr %19, ptr %11, align 8, !tbaa !59
  call void @llvm.lifetime.start.p0(i64 8, ptr %12) #4
  %20 = load ptr, ptr %11, align 8, !tbaa !59
  %21 = getelementptr inbounds nuw %struct._lv_draw_buf_t, ptr %20, i32 0, i32 3
  %22 = load ptr, ptr %21, align 8, !tbaa !63
  store ptr %22, ptr %12, align 8, !tbaa !32
  call void @llvm.lifetime.start.p0(i64 8, ptr %13) #4
  %23 = load ptr, ptr %6, align 8, !tbaa !79
  %24 = call ptr @lv_vector_dsc_create(ptr noundef %23)
  store ptr %24, ptr %13, align 8, !tbaa !82
  call void @llvm.lifetime.start.p0(i64 36, ptr %14) #4
  call void @lv_matrix_identity(ptr noundef %14)
  %25 = load ptr, ptr %8, align 8, !tbaa !13
  %26 = getelementptr inbounds nuw %struct.lv_area_t, ptr %25, i32 0, i32 0
  %27 = load i32, ptr %26, align 4, !tbaa !84
  %28 = sitofp i32 %27 to float
  %29 = load ptr, ptr %8, align 8, !tbaa !13
  %30 = getelementptr inbounds nuw %struct.lv_area_t, ptr %29, i32 0, i32 1
  %31 = load i32, ptr %30, align 4, !tbaa !85
  %32 = sitofp i32 %31 to float
  call void @lv_matrix_translate(ptr noundef %14, float noundef %28, float noundef %32)
  %33 = load ptr, ptr %13, align 8, !tbaa !82
  %34 = getelementptr inbounds nuw %struct._lv_vector_dsc_t, ptr %33, i32 0, i32 1
  %35 = getelementptr inbounds nuw %struct._lv_vector_draw_dsc_t, ptr %34, i32 0, i32 4
  %36 = load ptr, ptr %10, align 8, !tbaa !13
  call void @llvm.memcpy.p0.p0.i64(ptr align 8 %35, ptr align 4 %36, i64 16, i1 false), !tbaa.struct !86
  %37 = load ptr, ptr %9, align 8, !tbaa !80
  %38 = icmp ne ptr %37, null
  br i1 %38, label %39, label %115

39:                                               ; preds = %5
  call void @llvm.lifetime.start.p0(i64 4, ptr %15) #4
  %40 = load ptr, ptr %8, align 8, !tbaa !13
  %41 = call i32 @lv_area_get_width(ptr noundef %40)
  %42 = load ptr, ptr %9, align 8, !tbaa !80
  %43 = getelementptr inbounds nuw %struct._lv_draw_image_dsc_t, ptr %42, i32 0, i32 2
  %44 = load i64, ptr %43, align 8
  %45 = lshr i64 %44, 32
  %46 = and i64 %45, 65535
  %47 = trunc i64 %46 to i32
  %48 = sub nsw i32 %41, %47
  %49 = sub nsw i32 %48, 1
  %50 = sdiv i32 %49, 2
  store i32 %50, ptr %15, align 4, !tbaa !26
  call void @llvm.lifetime.start.p0(i64 4, ptr %16) #4
  %51 = load ptr, ptr %8, align 8, !tbaa !13
  %52 = call i32 @lv_area_get_height(ptr noundef %51)
  %53 = load ptr, ptr %9, align 8, !tbaa !80
  %54 = getelementptr inbounds nuw %struct._lv_draw_image_dsc_t, ptr %53, i32 0, i32 2
  %55 = load i64, ptr %54, align 8
  %56 = lshr i64 %55, 48
  %57 = trunc i64 %56 to i32
  %58 = sub nsw i32 %52, %57
  %59 = sub nsw i32 %58, 1
  %60 = sdiv i32 %59, 2
  store i32 %60, ptr %16, align 4, !tbaa !26
  %61 = load ptr, ptr %9, align 8, !tbaa !80
  %62 = getelementptr inbounds nuw %struct._lv_draw_image_dsc_t, ptr %61, i32 0, i32 8
  %63 = getelementptr inbounds nuw %struct.lv_point_t, ptr %62, i32 0, i32 0
  %64 = load i32, ptr %63, align 8, !tbaa !87
  %65 = icmp ne i32 %64, 0
  br i1 %65, label %72, label %66

66:                                               ; preds = %39
  %67 = load ptr, ptr %9, align 8, !tbaa !80
  %68 = getelementptr inbounds nuw %struct._lv_draw_image_dsc_t, ptr %67, i32 0, i32 8
  %69 = getelementptr inbounds nuw %struct.lv_point_t, ptr %68, i32 0, i32 1
  %70 = load i32, ptr %69, align 4, !tbaa !88
  %71 = icmp ne i32 %70, 0
  br i1 %71, label %72, label %77

72:                                               ; preds = %66, %39
  %73 = load i32, ptr %15, align 4, !tbaa !26
  %74 = sitofp i32 %73 to float
  %75 = load i32, ptr %16, align 4, !tbaa !26
  %76 = sitofp i32 %75 to float
  call void @lv_matrix_translate(ptr noundef %14, float noundef %74, float noundef %76)
  br label %77

77:                                               ; preds = %72, %66
  %78 = load ptr, ptr %9, align 8, !tbaa !80
  %79 = getelementptr inbounds nuw %struct._lv_draw_image_dsc_t, ptr %78, i32 0, i32 8
  %80 = getelementptr inbounds nuw %struct.lv_point_t, ptr %79, i32 0, i32 0
  %81 = load i32, ptr %80, align 8, !tbaa !87
  %82 = sitofp i32 %81 to float
  %83 = load ptr, ptr %9, align 8, !tbaa !80
  %84 = getelementptr inbounds nuw %struct._lv_draw_image_dsc_t, ptr %83, i32 0, i32 8
  %85 = getelementptr inbounds nuw %struct.lv_point_t, ptr %84, i32 0, i32 1
  %86 = load i32, ptr %85, align 4, !tbaa !88
  %87 = sitofp i32 %86 to float
  call void @lv_matrix_translate(ptr noundef %14, float noundef %82, float noundef %87)
  %88 = load ptr, ptr %9, align 8, !tbaa !80
  %89 = getelementptr inbounds nuw %struct._lv_draw_image_dsc_t, ptr %88, i32 0, i32 3
  %90 = load i32, ptr %89, align 4, !tbaa !89
  %91 = sitofp i32 %90 to float
  %92 = fdiv float %91, 1.000000e+01
  call void @lv_matrix_rotate(ptr noundef %14, float noundef %92)
  %93 = load ptr, ptr %9, align 8, !tbaa !80
  %94 = getelementptr inbounds nuw %struct._lv_draw_image_dsc_t, ptr %93, i32 0, i32 4
  %95 = load i32, ptr %94, align 8, !tbaa !90
  %96 = sitofp i32 %95 to float
  %97 = fdiv float %96, 2.560000e+02
  %98 = load ptr, ptr %9, align 8, !tbaa !80
  %99 = getelementptr inbounds nuw %struct._lv_draw_image_dsc_t, ptr %98, i32 0, i32 5
  %100 = load i32, ptr %99, align 4, !tbaa !91
  %101 = sitofp i32 %100 to float
  %102 = fdiv float %101, 2.560000e+02
  call void @lv_matrix_scale(ptr noundef %14, float noundef %97, float noundef %102)
  %103 = load ptr, ptr %9, align 8, !tbaa !80
  %104 = getelementptr inbounds nuw %struct._lv_draw_image_dsc_t, ptr %103, i32 0, i32 8
  %105 = getelementptr inbounds nuw %struct.lv_point_t, ptr %104, i32 0, i32 0
  %106 = load i32, ptr %105, align 8, !tbaa !87
  %107 = sub nsw i32 0, %106
  %108 = sitofp i32 %107 to float
  %109 = load ptr, ptr %9, align 8, !tbaa !80
  %110 = getelementptr inbounds nuw %struct._lv_draw_image_dsc_t, ptr %109, i32 0, i32 8
  %111 = getelementptr inbounds nuw %struct.lv_point_t, ptr %110, i32 0, i32 1
  %112 = load i32, ptr %111, align 4, !tbaa !88
  %113 = sub nsw i32 0, %112
  %114 = sitofp i32 %113 to float
  call void @lv_matrix_translate(ptr noundef %14, float noundef %108, float noundef %114)
  call void @llvm.lifetime.end.p0(i64 4, ptr %16) #4
  call void @llvm.lifetime.end.p0(i64 4, ptr %15) #4
  br label %115

115:                                              ; preds = %77, %5
  %116 = load ptr, ptr %13, align 8, !tbaa !82
  call void @lv_vector_dsc_set_transform(ptr noundef %116, ptr noundef %14)
  %117 = load ptr, ptr %13, align 8, !tbaa !82
  %118 = load ptr, ptr %12, align 8, !tbaa !32
  call void @lv_draw_svg_render(ptr noundef %117, ptr noundef %118)
  %119 = load ptr, ptr %13, align 8, !tbaa !82
  call void @lv_draw_vector(ptr noundef %119)
  %120 = load ptr, ptr %13, align 8, !tbaa !82
  call void @lv_vector_dsc_delete(ptr noundef %120)
  call void @llvm.lifetime.end.p0(i64 36, ptr %14) #4
  call void @llvm.lifetime.end.p0(i64 8, ptr %13) #4
  call void @llvm.lifetime.end.p0(i64 8, ptr %12) #4
  call void @llvm.lifetime.end.p0(i64 8, ptr %11) #4
  ret void
}