; Function Attrs: nounwind uwtable
define internal void @svg_draw(ptr noundef %0, ptr noundef readonly captures(none) %1, ptr noundef %2, ptr noundef readonly captures(address_is_null) %3, ptr noundef readonly captures(none) %4) #0 {
  %6 = alloca %struct._lv_matrix_t, align 4
  %7 = getelementptr inbounds nuw i8, ptr %1, i64 72
  %8 = load ptr, ptr %7, align 8, !tbaa !59
  %9 = getelementptr inbounds nuw i8, ptr %8, i64 24
  %10 = load ptr, ptr %9, align 8, !tbaa !56
  %11 = tail call ptr @lv_vector_dsc_create(ptr noundef %0) #4
  call void @llvm.lifetime.start.p0(i64 36, ptr nonnull %6) #4
  call void @lv_matrix_identity(ptr noundef nonnull %6) #4
  %12 = load i32, ptr %2, align 4, !tbaa !71
  %13 = sitofp i32 %12 to float
  %14 = getelementptr inbounds nuw i8, ptr %2, i64 4
  %15 = load i32, ptr %14, align 4, !tbaa !72
  %16 = sitofp i32 %15 to float
  call void @lv_matrix_translate(ptr noundef nonnull %6, float noundef %13, float noundef %16) #4
  %17 = getelementptr inbounds nuw i8, ptr %11, i64 432
  call void @llvm.memcpy.p0.p0.i64(ptr noundef nonnull align 8 dereferenceable(16) %17, ptr noundef nonnull align 4 dereferenceable(16) %4, i64 16, i1 false), !tbaa.struct !73
  %.not = icmp eq ptr %3, null
  br i1 %.not, label %67, label %18

18:                                               ; preds = %5
  %19 = call i32 @lv_area_get_width(ptr noundef nonnull %2) #4
  %20 = getelementptr inbounds nuw i8, ptr %3, i64 56
  %21 = load i64, ptr %20, align 8
  %22 = lshr i64 %21, 32
  %23 = trunc nuw i64 %22 to i32
  %24 = and i32 %23, 65535
  %25 = xor i32 %24, -1
  %26 = add i32 %19, %25
  %27 = sdiv i32 %26, 2
  %28 = call i32 @lv_area_get_height(ptr noundef nonnull %2) #4
  %29 = load i64, ptr %20, align 8
  %30 = lshr i64 %29, 48
  %31 = trunc nuw nsw i64 %30 to i32
  %32 = xor i32 %31, -1
  %33 = add i32 %28, %32
  %34 = sdiv i32 %33, 2
  %35 = getelementptr inbounds nuw i8, ptr %3, i64 88
  %36 = load i32, ptr %35, align 8, !tbaa !74
  %.not27 = icmp eq i32 %36, 0
  br i1 %.not27, label %37, label %40

37:                                               ; preds = %18
  %38 = getelementptr inbounds nuw i8, ptr %3, i64 92
  %39 = load i32, ptr %38, align 4, !tbaa !75
  %.not28 = icmp eq i32 %39, 0
  br i1 %.not28, label %45, label %40

40:                                               ; preds = %37, %18
  %41 = sitofp i32 %27 to float
  %42 = sitofp i32 %34 to float
  call void @lv_matrix_translate(ptr noundef nonnull %6, float noundef %41, float noundef %42) #4
  %.pre = load i32, ptr %35, align 8, !tbaa !74
  %.phi.trans.insert = getelementptr inbounds nuw i8, ptr %3, i64 92
  %.pre29 = load i32, ptr %.phi.trans.insert, align 4, !tbaa !75
  %43 = sitofp i32 %.pre to float
  %44 = sitofp i32 %.pre29 to float
  br label %45

45:                                               ; preds = %40, %37
  %46 = phi float [ %44, %40 ], [ 0.000000e+00, %37 ]
  %47 = phi float [ %43, %40 ], [ 0.000000e+00, %37 ]
  %48 = getelementptr inbounds nuw i8, ptr %3, i64 92
  call void @lv_matrix_translate(ptr noundef nonnull %6, float noundef %47, float noundef %46) #4
  %49 = getelementptr inbounds nuw i8, ptr %3, i64 68
  %50 = load i32, ptr %49, align 4, !tbaa !76
  %51 = sitofp i32 %50 to float
  %52 = fdiv float %51, 1.000000e+01
  call void @lv_matrix_rotate(ptr noundef nonnull %6, float noundef %52) #4
  %53 = getelementptr inbounds nuw i8, ptr %3, i64 72
  %54 = load i32, ptr %53, align 8, !tbaa !77
  %55 = sitofp i32 %54 to float
  %56 = fmul float %55, 3.906250e-03
  %57 = getelementptr inbounds nuw i8, ptr %3, i64 76
  %58 = load i32, ptr %57, align 4, !tbaa !78
  %59 = sitofp i32 %58 to float
  %60 = fmul float %59, 3.906250e-03
  call void @lv_matrix_scale(ptr noundef nonnull %6, float noundef %56, float noundef %60) #4
  %61 = load i32, ptr %35, align 8, !tbaa !74
  %62 = sub nsw i32 0, %61
  %63 = sitofp i32 %62 to float
  %64 = load i32, ptr %48, align 4, !tbaa !75
  %65 = sub nsw i32 0, %64
  %66 = sitofp i32 %65 to float
  call void @lv_matrix_translate(ptr noundef nonnull %6, float noundef %63, float noundef %66) #4
  br label %67

67:                                               ; preds = %45, %5
  call void @lv_vector_dsc_set_transform(ptr noundef nonnull %11, ptr noundef nonnull %6) #4
  call void @lv_draw_svg_render(ptr noundef nonnull %11, ptr noundef %10) #4
  call void @lv_draw_vector(ptr noundef nonnull %11) #4
  call void @lv_vector_dsc_delete(ptr noundef nonnull %11) #4
  call void @llvm.lifetime.end.p0(i64 36, ptr nonnull %6) #4
  ret void
}